; Function Attrs: nounwind uwtable
define i32 @zend_eval_string_ex(ptr noundef %0, ptr noundef %1, ptr noundef %2, i1 noundef zeroext %3) local_unnamed_addr #0 {
  %5 = tail call i64 @strlen(ptr noundef nonnull dereferenceable(1) %0) #29
  %6 = tail call i32 @zend_eval_stringl(ptr noundef %0, i64 noundef %5, ptr noundef %1, ptr noundef %2), !range !4
  %7 = load ptr, ptr getelementptr inbounds (%struct._zend_executor_globals, ptr @executor_globals, i64 0, i32 50), align 8
  %8 = icmp ne ptr %7, null
  %or.cond.i = select i1 %3, i1 %8, i1 false
  br i1 %or.cond.i, label %9, label %zend_eval_stringl_ex.exit

9:                                                ; preds = %4
  %10 = tail call i32 @zend_exception_error(ptr noundef nonnull %7, i32 noundef 1) #24
  br label %zend_eval_stringl_ex.exit

zend_eval_stringl_ex.exit:                        ; preds = %4, %9
  %.0.i = phi i32 [ %10, %9 ], [ %6, %4 ]
  ret i32 %.0.i
}